target datalayout = "e-m:e-p270:32:32-p271:32:32-p272:64:64-i64:64-i128:128-f80:128-n8:16:32:64-S128"
target triple = "x86_64-pc-linux-gnu"

%struct.Vec_Int_t_ = type { i32, i32, ptr }
%struct.Prs_Man_t_ = type { ptr, ptr, ptr, ptr, ptr, ptr, ptr, ptr, ptr, %struct.Vec_Str_t_, %struct.Vec_Int_t_, %struct.Vec_Int_t_, %struct.Vec_Int_t_, %struct.Vec_Int_t_, %struct.Vec_Int_t_, %struct.Vec_Int_t_, %struct.Vec_Int_t_, i32, i32, i32, i32, [1000 x i8] }
%struct.Vec_Str_t_ = type { i32, i32, ptr }

@s_VerTypes = internal global [18 x ptr] [ptr null, ptr @.str.39, ptr @.str.40, ptr @.str.41, ptr @.str.42, ptr @.str.43, ptr @.str.44, ptr @.str.45, ptr @.str.46, ptr @.str.47, ptr @.str.48, ptr @.str.49, ptr @.str.50, ptr @.str.51, ptr @.str.52, ptr @.str.53, ptr @.str.54, ptr null], align 16

; Function Attrs: nounwind uwtable
define void @Prs_NtkAddVerilogDirectives(ptr noundef %0) #0 {
  %2 = alloca ptr, align 8
  %3 = alloca i32, align 4
  store ptr %0, ptr %2, align 8
  store i32 1, ptr %3, align 4
  br label %4

4:                                                ; preds = %19, %1
  %5 = load i32, ptr %3, align 4
  %6 = sext i32 %5 to i64
  %7 = getelementptr inbounds [18 x ptr], ptr @s_VerTypes, i64 0, i64 %6
  %8 = load ptr, ptr %7, align 8
  %9 = icmp ne ptr %8, null
  br i1 %9, label %10, label %22

10:                                               ; preds = %4
  %11 = load ptr, ptr %2, align 8
  %12 = getelementptr inbounds %struct.Prs_Man_t_, ptr %11, i32 0, i32 4
  %13 = load ptr, ptr %12, align 8
  %14 = load i32, ptr %3, align 4
  %15 = sext i32 %14 to i64
  %16 = getelementptr inbounds [18 x ptr], ptr @s_VerTypes, i64 0, i64 %15
  %17 = load ptr, ptr %16, align 8
  %18 = call i32 @Abc_NamStrFindOrAdd(ptr noundef %13, ptr noundef %17, ptr noundef null)
  br label %19

19:                                               ; preds = %10
  %20 = load i32, ptr %3, align 4
  %21 = add nsw i32 %20, 1
  store i32 %21, ptr %3, align 4
  br label %4, !llvm.loop !4

22:                                               ; preds = %4
  ret void
}