; Function Attrs: nounwind uwtable
define void @Prs_NtkAddVerilogDirectives(ptr noundef readonly captures(none) %0) local_unnamed_addr #0 {
  %2 = getelementptr inbounds nuw i8, ptr %0, i64 32
  br label %3

3:                                                ; preds = %1, %3
  %indvars.iv = phi i64 [ 1, %1 ], [ %indvars.iv.next, %3 ]
  %4 = getelementptr inbounds nuw [18 x ptr], ptr @s_VerTypes, i64 0, i64 %indvars.iv
  %5 = load ptr, ptr %4, align 8
  %6 = load ptr, ptr %2, align 8
  %7 = tail call i32 @Abc_NamStrFindOrAdd(ptr noundef %6, ptr noundef %5, ptr noundef null) #28
  %indvars.iv.next = add nuw nsw i64 %indvars.iv, 1
  %8 = icmp eq i64 %indvars.iv.next, 17
  br i1 %8, label %9, label %3, !llvm.loop !4

9:                                                ; preds = %3
  ret void
}